ccopy_reg
_reconstructor
p0
(cgrid
grid
p1
c__builtin__
object
p2
Ntp3
Rp4
(dp5
S'width'
p6
I20
sS'height'
p7
I20
sS'margin'
p8
I5
sS'Matrix'
p9
(lp10
(lp11
g0
(ccell
cell
p12
g2
Ntp13
Rp14
(dp15
S'column'
p16
I0
sS'blocked'
p17
I01
sS'row'
p18
I0
sbag0
(g12
g2
Ntp19
Rp20
(dp21
g16
I1
sg17
I01
sg18
I0
sbag0
(g12
g2
Ntp22
Rp23
(dp24
g16
I2
sg17
I01
sg18
I0
sbag0
(g12
g2
Ntp25
Rp26
(dp27
g16
I3
sg17
I00
sg18
I0
sbag0
(g12
g2
Ntp28
Rp29
(dp30
g16
I4
sg17
I00
sg18
I0
sbag0
(g12
g2
Ntp31
Rp32
(dp33
g16
I5
sg17
I00
sg18
I0
sbag0
(g12
g2
Ntp34
Rp35
(dp36
g16
I6
sg17
I01
sg18
I0
sbag0
(g12
g2
Ntp37
Rp38
(dp39
g16
I7
sg17
I00
sg18
I0
sbag0
(g12
g2
Ntp40
Rp41
(dp42
g16
I8
sg17
I00
sg18
I0
sbag0
(g12
g2
Ntp43
Rp44
(dp45
g16
I9
sg17
I01
sg18
I0
sbaa(lp46
g0
(g12
g2
Ntp47
Rp48
(dp49
g16
I0
sg17
I01
sg18
I1
sbag0
(g12
g2
Ntp50
Rp51
(dp52
g16
I1
sg17
I01
sg18
I1
sbag0
(g12
g2
Ntp53
Rp54
(dp55
g16
I2
sg17
I00
sg18
I1
sbag0
(g12
g2
Ntp56
Rp57
(dp58
g16
I3
sg17
I01
sg18
I1
sbag0
(g12
g2
Ntp59
Rp60
(dp61
g16
I4
sg17
I00
sg18
I1
sbag0
(g12
g2
Ntp62
Rp63
(dp64
g16
I5
sg17
I00
sg18
I1
sbag0
(g12
g2
Ntp65
Rp66
(dp67
g16
I6
sg17
I01
sg18
I1
sbag0
(g12
g2
Ntp68
Rp69
(dp70
g16
I7
sg17
I00
sg18
I1
sbag0
(g12
g2
Ntp71
Rp72
(dp73
g16
I8
sg17
I00
sg18
I1
sbag0
(g12
g2
Ntp74
Rp75
(dp76
g16
I9
sg17
I00
sg18
I1
sbaa(lp77
g0
(g12
g2
Ntp78
Rp79
(dp80
g16
I0
sg17
I00
sg18
I2
sbag0
(g12
g2
Ntp81
Rp82
(dp83
g16
I1
sg17
I00
sg18
I2
sbag0
(g12
g2
Ntp84
Rp85
(dp86
g16
I2
sg17
I00
sg18
I2
sbag0
(g12
g2
Ntp87
Rp88
(dp89
g16
I3
sg17
I00
sg18
I2
sbag0
(g12
g2
Ntp90
Rp91
(dp92
g16
I4
sg17
I00
sg18
I2
sbag0
(g12
g2
Ntp93
Rp94
(dp95
g16
I5
sg17
I01
sg18
I2
sbag0
(g12
g2
Ntp96
Rp97
(dp98
g16
I6
sg17
I01
sg18
I2
sbag0
(g12
g2
Ntp99
Rp100
(dp101
g16
I7
sg17
I00
sg18
I2
sbag0
(g12
g2
Ntp102
Rp103
(dp104
g16
I8
sg17
I00
sg18
I2
sbag0
(g12
g2
Ntp105
Rp106
(dp107
g16
I9
sg17
I00
sg18
I2
sbaa(lp108
g0
(g12
g2
Ntp109
Rp110
(dp111
g16
I0
sg17
I00
sg18
I3
sbag0
(g12
g2
Ntp112
Rp113
(dp114
g16
I1
sg17
I01
sg18
I3
sbag0
(g12
g2
Ntp115
Rp116
(dp117
g16
I2
sg17
I00
sg18
I3
sbag0
(g12
g2
Ntp118
Rp119
(dp120
g16
I3
sg17
I00
sg18
I3
sbag0
(g12
g2
Ntp121
Rp122
(dp123
g16
I4
sg17
I00
sg18
I3
sbag0
(g12
g2
Ntp124
Rp125
(dp126
g16
I5
sg17
I00
sg18
I3
sbag0
(g12
g2
Ntp127
Rp128
(dp129
g16
I6
sg17
I00
sg18
I3
sbag0
(g12
g2
Ntp130
Rp131
(dp132
g16
I7
sg17
I00
sg18
I3
sbag0
(g12
g2
Ntp133
Rp134
(dp135
g16
I8
sg17
I01
sg18
I3
sbag0
(g12
g2
Ntp136
Rp137
(dp138
g16
I9
sg17
I01
sg18
I3
sbaa(lp139
g0
(g12
g2
Ntp140
Rp141
(dp142
g16
I0
sg17
I00
sg18
I4
sbag0
(g12
g2
Ntp143
Rp144
(dp145
g16
I1
sg17
I00
sg18
I4
sbag0
(g12
g2
Ntp146
Rp147
(dp148
g16
I2
sg17
I00
sg18
I4
sbag0
(g12
g2
Ntp149
Rp150
(dp151
g16
I3
sg17
I00
sg18
I4
sbag0
(g12
g2
Ntp152
Rp153
(dp154
g16
I4
sg17
I01
sg18
I4
sbag0
(g12
g2
Ntp155
Rp156
(dp157
g16
I5
sg17
I00
sg18
I4
sbag0
(g12
g2
Ntp158
Rp159
(dp160
g16
I6
sg17
I01
sg18
I4
sbag0
(g12
g2
Ntp161
Rp162
(dp163
g16
I7
sg17
I01
sg18
I4
sbag0
(g12
g2
Ntp164
Rp165
(dp166
g16
I8
sg17
I00
sg18
I4
sbag0
(g12
g2
Ntp167
Rp168
(dp169
g16
I9
sg17
I00
sg18
I4
sbaa(lp170
g0
(g12
g2
Ntp171
Rp172
(dp173
g16
I0
sg17
I00
sg18
I5
sbag0
(g12
g2
Ntp174
Rp175
(dp176
g16
I1
sg17
I00
sg18
I5
sbag0
(g12
g2
Ntp177
Rp178
(dp179
g16
I2
sg17
I00
sg18
I5
sbag0
(g12
g2
Ntp180
Rp181
(dp182
g16
I3
sg17
I01
sg18
I5
sbag0
(g12
g2
Ntp183
Rp184
(dp185
g16
I4
sg17
I00
sg18
I5
sbag0
(g12
g2
Ntp186
Rp187
(dp188
g16
I5
sg17
I01
sg18
I5
sbag0
(g12
g2
Ntp189
Rp190
(dp191
g16
I6
sg17
I01
sg18
I5
sbag0
(g12
g2
Ntp192
Rp193
(dp194
g16
I7
sg17
I00
sg18
I5
sbag0
(g12
g2
Ntp195
Rp196
(dp197
g16
I8
sg17
I00
sg18
I5
sbag0
(g12
g2
Ntp198
Rp199
(dp200
g16
I9
sg17
I00
sg18
I5
sbaa(lp201
g0
(g12
g2
Ntp202
Rp203
(dp204
g16
I0
sg17
I00
sg18
I6
sbag0
(g12
g2
Ntp205
Rp206
(dp207
g16
I1
sg17
I00
sg18
I6
sbag0
(g12
g2
Ntp208
Rp209
(dp210
g16
I2
sg17
I01
sg18
I6
sbag0
(g12
g2
Ntp211
Rp212
(dp213
g16
I3
sg17
I00
sg18
I6
sbag0
(g12
g2
Ntp214
Rp215
(dp216
g16
I4
sg17
I00
sg18
I6
sbag0
(g12
g2
Ntp217
Rp218
(dp219
g16
I5
sg17
I01
sg18
I6
sbag0
(g12
g2
Ntp220
Rp221
(dp222
g16
I6
sg17
I00
sg18
I6
sbag0
(g12
g2
Ntp223
Rp224
(dp225
g16
I7
sg17
I00
sg18
I6
sbag0
(g12
g2
Ntp226
Rp227
(dp228
g16
I8
sg17
I01
sg18
I6
sbag0
(g12
g2
Ntp229
Rp230
(dp231
g16
I9
sg17
I00
sg18
I6
sbaa(lp232
g0
(g12
g2
Ntp233
Rp234
(dp235
g16
I0
sg17
I00
sg18
I7
sbag0
(g12
g2
Ntp236
Rp237
(dp238
g16
I1
sg17
I00
sg18
I7
sbag0
(g12
g2
Ntp239
Rp240
(dp241
g16
I2
sg17
I01
sg18
I7
sbag0
(g12
g2
Ntp242
Rp243
(dp244
g16
I3
sg17
I00
sg18
I7
sbag0
(g12
g2
Ntp245
Rp246
(dp247
g16
I4
sg17
I00
sg18
I7
sbag0
(g12
g2
Ntp248
Rp249
(dp250
g16
I5
sg17
I00
sg18
I7
sbag0
(g12
g2
Ntp251
Rp252
(dp253
g16
I6
sg17
I00
sg18
I7
sbag0
(g12
g2
Ntp254
Rp255
(dp256
g16
I7
sg17
I01
sg18
I7
sbag0
(g12
g2
Ntp257
Rp258
(dp259
g16
I8
sg17
I01
sg18
I7
sbag0
(g12
g2
Ntp260
Rp261
(dp262
g16
I9
sg17
I00
sg18
I7
sbaa(lp263
g0
(g12
g2
Ntp264
Rp265
(dp266
g16
I0
sg17
I00
sg18
I8
sbag0
(g12
g2
Ntp267
Rp268
(dp269
g16
I1
sg17
I00
sg18
I8
sbag0
(g12
g2
Ntp270
Rp271
(dp272
g16
I2
sg17
I00
sg18
I8
sbag0
(g12
g2
Ntp273
Rp274
(dp275
g16
I3
sg17
I00
sg18
I8
sbag0
(g12
g2
Ntp276
Rp277
(dp278
g16
I4
sg17
I01
sg18
I8
sbag0
(g12
g2
Ntp279
Rp280
(dp281
g16
I5
sg17
I01
sg18
I8
sbag0
(g12
g2
Ntp282
Rp283
(dp284
g16
I6
sg17
I00
sg18
I8
sbag0
(g12
g2
Ntp285
Rp286
(dp287
g16
I7
sg17
I00
sg18
I8
sbag0
(g12
g2
Ntp288
Rp289
(dp290
g16
I8
sg17
I00
sg18
I8
sbag0
(g12
g2
Ntp291
Rp292
(dp293
g16
I9
sg17
I00
sg18
I8
sbaa(lp294
g0
(g12
g2
Ntp295
Rp296
(dp297
g16
I0
sg17
I00
sg18
I9
sbag0
(g12
g2
Ntp298
Rp299
(dp300
g16
I1
sg17
I00
sg18
I9
sbag0
(g12
g2
Ntp301
Rp302
(dp303
g16
I2
sg17
I00
sg18
I9
sbag0
(g12
g2
Ntp304
Rp305
(dp306
g16
I3
sg17
I00
sg18
I9
sbag0
(g12
g2
Ntp307
Rp308
(dp309
g16
I4
sg17
I00
sg18
I9
sbag0
(g12
g2
Ntp310
Rp311
(dp312
g16
I5
sg17
I01
sg18
I9
sbag0
(g12
g2
Ntp313
Rp314
(dp315
g16
I6
sg17
I00
sg18
I9
sbag0
(g12
g2
Ntp316
Rp317
(dp318
g16
I7
sg17
I00
sg18
I9
sbag0
(g12
g2
Ntp319
Rp320
(dp321
g16
I8
sg17
I00
sg18
I9
sbag0
(g12
g2
Ntp322
Rp323
(dp324
g16
I9
sg17
I00
sg18
I9
sbaasS'size'
p325
I10
sb.