ccopy_reg
_reconstructor
p0
(cgrid
grid
p1
c__builtin__
object
p2
Ntp3
Rp4
(dp5
S'width'
p6
I20
sS'height'
p7
I20
sS'margin'
p8
I5
sS'Matrix'
p9
(lp10
(lp11
g0
(ccell
cell
p12
g2
Ntp13
Rp14
(dp15
S'column'
p16
I0
sS'blocked'
p17
I00
sS'row'
p18
I0
sbag0
(g12
g2
Ntp19
Rp20
(dp21
g16
I1
sg17
I00
sg18
I0
sbag0
(g12
g2
Ntp22
Rp23
(dp24
g16
I2
sg17
I00
sg18
I0
sbag0
(g12
g2
Ntp25
Rp26
(dp27
g16
I3
sg17
I01
sg18
I0
sbag0
(g12
g2
Ntp28
Rp29
(dp30
g16
I4
sg17
I00
sg18
I0
sbaa(lp31
g0
(g12
g2
Ntp32
Rp33
(dp34
g16
I0
sg17
I00
sg18
I1
sbag0
(g12
g2
Ntp35
Rp36
(dp37
g16
I1
sg17
I00
sg18
I1
sbag0
(g12
g2
Ntp38
Rp39
(dp40
g16
I2
sg17
I01
sg18
I1
sbag0
(g12
g2
Ntp41
Rp42
(dp43
g16
I3
sg17
I00
sg18
I1
sbag0
(g12
g2
Ntp44
Rp45
(dp46
g16
I4
sg17
I00
sg18
I1
sbaa(lp47
g0
(g12
g2
Ntp48
Rp49
(dp50
g16
I0
sg17
I00
sg18
I2
sbag0
(g12
g2
Ntp51
Rp52
(dp53
g16
I1
sg17
I00
sg18
I2
sbag0
(g12
g2
Ntp54
Rp55
(dp56
g16
I2
sg17
I00
sg18
I2
sbag0
(g12
g2
Ntp57
Rp58
(dp59
g16
I3
sg17
I00
sg18
I2
sbag0
(g12
g2
Ntp60
Rp61
(dp62
g16
I4
sg17
I01
sg18
I2
sbaa(lp63
g0
(g12
g2
Ntp64
Rp65
(dp66
g16
I0
sg17
I00
sg18
I3
sbag0
(g12
g2
Ntp67
Rp68
(dp69
g16
I1
sg17
I01
sg18
I3
sbag0
(g12
g2
Ntp70
Rp71
(dp72
g16
I2
sg17
I00
sg18
I3
sbag0
(g12
g2
Ntp73
Rp74
(dp75
g16
I3
sg17
I00
sg18
I3
sbag0
(g12
g2
Ntp76
Rp77
(dp78
g16
I4
sg17
I01
sg18
I3
sbaa(lp79
g0
(g12
g2
Ntp80
Rp81
(dp82
g16
I0
sg17
I00
sg18
I4
sbag0
(g12
g2
Ntp83
Rp84
(dp85
g16
I1
sg17
I00
sg18
I4
sbag0
(g12
g2
Ntp86
Rp87
(dp88
g16
I2
sg17
I00
sg18
I4
sbag0
(g12
g2
Ntp89
Rp90
(dp91
g16
I3
sg17
I00
sg18
I4
sbag0
(g12
g2
Ntp92
Rp93
(dp94
g16
I4
sg17
I00
sg18
I4
sbaasS'size'
p95
I5
sb.